target datalayout = "e-m:e-p270:32:32-p271:32:32-p272:64:64-i64:64-i128:128-f80:128-n8:16:32:64-S128"
target triple = "x86_64-pc-linux-gnu"

%"class.cv::ccm::IO" = type { ptr, %"class.std::__cxx11::basic_string", %"class.std::__cxx11::basic_string" }
%"class.std::__cxx11::basic_string" = type { %"struct.std::__cxx11::basic_string<char>::_Alloc_hider", i64, %union.anon }
%"struct.std::__cxx11::basic_string<char>::_Alloc_hider" = type { ptr }
%union.anon = type { i64, [8 x i8] }

; Function Attrs: mustprogress nounwind uwtable
define available_externally noundef i32 @_ZNSt7__cxx1112basic_stringIcSt11char_traitsIcESaIcEE10_S_compareEmm(i64 noundef %0, i64 noundef %1) #1 align 2 {
  %3 = alloca i32, align 4
  %4 = alloca i64, align 8
  %5 = alloca i64, align 8
  %6 = alloca i64, align 8
  %7 = alloca i32, align 4
  store i64 %0, ptr %4, align 8, !tbaa !30
  store i64 %1, ptr %5, align 8, !tbaa !30
  call void @llvm.lifetime.start.p0(i64 8, ptr %6) #14
  %8 = load i64, ptr %4, align 8, !tbaa !30
  %9 = load i64, ptr %5, align 8, !tbaa !30
  %10 = sub i64 %8, %9
  store i64 %10, ptr %6, align 8, !tbaa !30
  %11 = load i64, ptr %6, align 8, !tbaa !30
  %12 = icmp sgt i64 %11, 2147483647
  br i1 %12, label %13, label %14

13:                                               ; preds = %2
  store i32 2147483647, ptr %3, align 4
  store i32 1, ptr %7, align 4
  br label %21

14:                                               ; preds = %2
  %15 = load i64, ptr %6, align 8, !tbaa !30
  %16 = icmp slt i64 %15, -2147483648
  br i1 %16, label %17, label %18

17:                                               ; preds = %14
  store i32 -2147483648, ptr %3, align 4
  store i32 1, ptr %7, align 4
  br label %21

18:                                               ; preds = %14
  %19 = load i64, ptr %6, align 8, !tbaa !30
  %20 = trunc i64 %19 to i32
  store i32 %20, ptr %3, align 4
  store i32 1, ptr %7, align 4
  br label %21

21:                                               ; preds = %18, %17, %13
  call void @llvm.lifetime.end.p0(i64 8, ptr %6) #14
  %22 = load i32, ptr %3, align 4
  ret i32 %22
}

; Function Attrs: mustprogress nounwind uwtable
define available_externally noundef ptr @_ZNKSt7__cxx1112basic_stringIcSt11char_traitsIcESaIcEE7_M_dataEv(ptr noundef nonnull align 8 dereferenceable(32) %0) #1 align 2 {
  %2 = alloca ptr, align 8
  store ptr %0, ptr %2, align 8, !tbaa !8
  %3 = load ptr, ptr %2, align 8
  %4 = getelementptr inbounds nuw %"class.std::__cxx11::basic_string", ptr %3, i32 0, i32 0
  %5 = getelementptr inbounds nuw %"struct.std::__cxx11::basic_string<char>::_Alloc_hider", ptr %4, i32 0, i32 0
  %6 = load ptr, ptr %5, align 8, !tbaa !42
  ret ptr %6
}

; Function Attrs: inlinehint mustprogress nounwind uwtable
define linkonce_odr noundef nonnull align 8 dereferenceable(8) ptr @_ZSt3minImERKT_S2_S2_(ptr noundef nonnull align 8 dereferenceable(8) %0, ptr noundef nonnull align 8 dereferenceable(8) %1) #2 comdat {
  %3 = alloca ptr, align 8
  %4 = alloca ptr, align 8
  %5 = alloca ptr, align 8
  store ptr %0, ptr %4, align 8, !tbaa !56
  store ptr %1, ptr %5, align 8, !tbaa !56
  %6 = load ptr, ptr %5, align 8, !tbaa !56
  %7 = load i64, ptr %6, align 8, !tbaa !30
  %8 = load ptr, ptr %4, align 8, !tbaa !56
  %9 = load i64, ptr %8, align 8, !tbaa !30
  %10 = icmp ult i64 %7, %9
  br i1 %10, label %11, label %13

11:                                               ; preds = %2
  %12 = load ptr, ptr %5, align 8, !tbaa !56
  store ptr %12, ptr %3, align 8
  br label %15

13:                                               ; preds = %2
  %14 = load ptr, ptr %4, align 8, !tbaa !56
  store ptr %14, ptr %3, align 8
  br label %15

15:                                               ; preds = %13, %11
  %16 = load ptr, ptr %3, align 8
  ret ptr %16
}

; Function Attrs: mustprogress nounwind uwtable
define linkonce_odr hidden noundef i32 @_ZNSt11char_traitsIcE7compareEPKcS2_m(ptr noundef %0, ptr noundef %1, i64 noundef %2) #1 comdat align 2 {
  %4 = alloca i32, align 4
  %5 = alloca ptr, align 8
  %6 = alloca ptr, align 8
  %7 = alloca i64, align 8
  store ptr %0, ptr %5, align 8, !tbaa !16
  store ptr %1, ptr %6, align 8, !tbaa !16
  store i64 %2, ptr %7, align 8, !tbaa !30
  %8 = load i64, ptr %7, align 8, !tbaa !30
  %9 = icmp eq i64 %8, 0
  br i1 %9, label %10, label %11

10:                                               ; preds = %3
  store i32 0, ptr %4, align 4
  br label %16

11:                                               ; preds = %3
  %12 = load ptr, ptr %5, align 8, !tbaa !16
  %13 = load ptr, ptr %6, align 8, !tbaa !16
  %14 = load i64, ptr %7, align 8, !tbaa !30
  %15 = call i32 @memcmp(ptr noundef %12, ptr noundef %13, i64 noundef %14) #14
  store i32 %15, ptr %4, align 4
  br label %16

16:                                               ; preds = %11, %10
  %17 = load i32, ptr %4, align 4
  ret i32 %17
}

; Function Attrs: mustprogress nounwind uwtable
define available_externally noundef ptr @_ZNKSt7__cxx1112basic_stringIcSt11char_traitsIcESaIcEE4dataEv(ptr noundef nonnull align 8 dereferenceable(32) %0) #1 align 2 {
  %2 = alloca ptr, align 8
  store ptr %0, ptr %2, align 8, !tbaa !8
  %3 = load ptr, ptr %2, align 8
  %4 = call noundef ptr @_ZNKSt7__cxx1112basic_stringIcSt11char_traitsIcESaIcEE7_M_dataEv(ptr noundef nonnull align 8 dereferenceable(32) %3)
  ret ptr %4
}

; Function Attrs: mustprogress nounwind uwtable
define available_externally noundef i64 @_ZNKSt7__cxx1112basic_stringIcSt11char_traitsIcESaIcEE4sizeEv(ptr noundef nonnull align 8 dereferenceable(32) %0) #1 align 2 {
  %2 = alloca ptr, align 8
  store ptr %0, ptr %2, align 8, !tbaa !8
  %3 = load ptr, ptr %2, align 8
  %4 = getelementptr inbounds nuw %"class.std::__cxx11::basic_string", ptr %3, i32 0, i32 1
  %5 = load i64, ptr %4, align 8, !tbaa !40
  ret i64 %5
}

; Function Attrs: noinline noreturn nounwind uwtable
define linkonce_odr hidden void @__clang_call_terminate(ptr noundef %0) #4 comdat {
  %2 = call ptr @__cxa_begin_catch(ptr %0) #14
  call void @_ZSt9terminatev() #15
  unreachable
}

; Function Attrs: mustprogress uwtable
define available_externally noundef i32 @_ZNKSt7__cxx1112basic_stringIcSt11char_traitsIcESaIcEE7compareERKS4_(ptr noundef nonnull align 8 dereferenceable(32) %0, ptr noundef nonnull align 8 dereferenceable(32) %1) #0 align 2 {
  %3 = alloca ptr, align 8
  %4 = alloca ptr, align 8
  %5 = alloca i64, align 8
  %6 = alloca i64, align 8
  %7 = alloca i64, align 8
  %8 = alloca i32, align 4
  store ptr %0, ptr %3, align 8, !tbaa !8
  store ptr %1, ptr %4, align 8, !tbaa !8
  %9 = load ptr, ptr %3, align 8
  call void @llvm.lifetime.start.p0(i64 8, ptr %5) #14
  %10 = call noundef i64 @_ZNKSt7__cxx1112basic_stringIcSt11char_traitsIcESaIcEE4sizeEv(ptr noundef nonnull align 8 dereferenceable(32) %9) #14
  store i64 %10, ptr %5, align 8, !tbaa !30
  call void @llvm.lifetime.start.p0(i64 8, ptr %6) #14
  %11 = load ptr, ptr %4, align 8, !tbaa !8
  %12 = call noundef i64 @_ZNKSt7__cxx1112basic_stringIcSt11char_traitsIcESaIcEE4sizeEv(ptr noundef nonnull align 8 dereferenceable(32) %11) #14
  store i64 %12, ptr %6, align 8, !tbaa !30
  call void @llvm.lifetime.start.p0(i64 8, ptr %7) #14
  %13 = call noundef nonnull align 8 dereferenceable(8) ptr @_ZSt3minImERKT_S2_S2_(ptr noundef nonnull align 8 dereferenceable(8) %5, ptr noundef nonnull align 8 dereferenceable(8) %6)
  %14 = load i64, ptr %13, align 8, !tbaa !30
  store i64 %14, ptr %7, align 8, !tbaa !30
  call void @llvm.lifetime.start.p0(i64 4, ptr %8) #14
  %15 = call noundef ptr @_ZNKSt7__cxx1112basic_stringIcSt11char_traitsIcESaIcEE7_M_dataEv(ptr noundef nonnull align 8 dereferenceable(32) %9)
  %16 = load ptr, ptr %4, align 8, !tbaa !8
  %17 = call noundef ptr @_ZNKSt7__cxx1112basic_stringIcSt11char_traitsIcESaIcEE4dataEv(ptr noundef nonnull align 8 dereferenceable(32) %16) #14
  %18 = load i64, ptr %7, align 8, !tbaa !30
  %19 = call noundef i32 @_ZNSt11char_traitsIcE7compareEPKcS2_m(ptr noundef %15, ptr noundef %17, i64 noundef %18)
  store i32 %19, ptr %8, align 4, !tbaa !54
  %20 = load i32, ptr %8, align 4, !tbaa !54
  %21 = icmp ne i32 %20, 0
  br i1 %21, label %26, label %22

22:                                               ; preds = %2
  %23 = load i64, ptr %5, align 8, !tbaa !30
  %24 = load i64, ptr %6, align 8, !tbaa !30
  %25 = call noundef i32 @_ZNSt7__cxx1112basic_stringIcSt11char_traitsIcESaIcEE10_S_compareEmm(i64 noundef %23, i64 noundef %24) #14
  store i32 %25, ptr %8, align 4, !tbaa !54
  br label %26

26:                                               ; preds = %22, %2
  %27 = load i32, ptr %8, align 4, !tbaa !54
  call void @llvm.lifetime.end.p0(i64 4, ptr %8) #14
  call void @llvm.lifetime.end.p0(i64 8, ptr %7) #14
  call void @llvm.lifetime.end.p0(i64 8, ptr %6) #14
  call void @llvm.lifetime.end.p0(i64 8, ptr %5) #14
  ret i32 %27
}

; Function Attrs: inlinehint mustprogress nounwind uwtable
define linkonce_odr noundef zeroext i1 @_ZSteqIcEN9__gnu_cxx11__enable_ifIXsr9__is_charIT_EE7__valueEbE6__typeERKNSt7__cxx1112basic_stringIS2_St11char_traitsIS2_ESaIS2_EEESC_(ptr noundef nonnull align 8 dereferenceable(32) %0, ptr noundef nonnull align 8 dereferenceable(32) %1) #2 comdat {
  %3 = alloca ptr, align 8
  %4 = alloca ptr, align 8
  store ptr %0, ptr %3, align 8, !tbaa !8
  store ptr %1, ptr %4, align 8, !tbaa !8
  %5 = load ptr, ptr %3, align 8, !tbaa !8
  %6 = call noundef i64 @_ZNKSt7__cxx1112basic_stringIcSt11char_traitsIcESaIcEE4sizeEv(ptr noundef nonnull align 8 dereferenceable(32) %5) #14
  %7 = load ptr, ptr %4, align 8, !tbaa !8
  %8 = call noundef i64 @_ZNKSt7__cxx1112basic_stringIcSt11char_traitsIcESaIcEE4sizeEv(ptr noundef nonnull align 8 dereferenceable(32) %7) #14
  %9 = icmp eq i64 %6, %8
  br i1 %9, label %10, label %20

10:                                               ; preds = %2
  %11 = load ptr, ptr %3, align 8, !tbaa !8
  %12 = call noundef ptr @_ZNKSt7__cxx1112basic_stringIcSt11char_traitsIcESaIcEE4dataEv(ptr noundef nonnull align 8 dereferenceable(32) %11) #14
  %13 = load ptr, ptr %4, align 8, !tbaa !8
  %14 = call noundef ptr @_ZNKSt7__cxx1112basic_stringIcSt11char_traitsIcESaIcEE4dataEv(ptr noundef nonnull align 8 dereferenceable(32) %13) #14
  %15 = load ptr, ptr %3, align 8, !tbaa !8
  %16 = call noundef i64 @_ZNKSt7__cxx1112basic_stringIcSt11char_traitsIcESaIcEE4sizeEv(ptr noundef nonnull align 8 dereferenceable(32) %15) #14
  %17 = call noundef i32 @_ZNSt11char_traitsIcE7compareEPKcS2_m(ptr noundef %12, ptr noundef %14, i64 noundef %16)
  %18 = icmp ne i32 %17, 0
  %19 = xor i1 %18, true
  br label %20

20:                                               ; preds = %10, %2
  %21 = phi i1 [ false, %2 ], [ %19, %10 ]
  ret i1 %21
}

; Function Attrs: inlinehint mustprogress nounwind uwtable
define linkonce_odr noundef zeroext i1 @_ZStltIcSt11char_traitsIcESaIcEEbRKNSt7__cxx1112basic_stringIT_T0_T1_EESA_(ptr noundef nonnull align 8 dereferenceable(32) %0, ptr noundef nonnull align 8 dereferenceable(32) %1) #2 comdat personality ptr @__gxx_personality_v0 {
  %3 = alloca ptr, align 8
  %4 = alloca ptr, align 8
  store ptr %0, ptr %3, align 8, !tbaa !8
  store ptr %1, ptr %4, align 8, !tbaa !8
  %5 = load ptr, ptr %3, align 8, !tbaa !8
  %6 = load ptr, ptr %4, align 8, !tbaa !8
  %7 = invoke noundef i32 @_ZNKSt7__cxx1112basic_stringIcSt11char_traitsIcESaIcEE7compareERKS4_(ptr noundef nonnull align 8 dereferenceable(32) %5, ptr noundef nonnull align 8 dereferenceable(32) %6)
          to label %8 unwind label %10

8:                                                ; preds = %2
  %9 = icmp slt i32 %7, 0
  ret i1 %9

10:                                               ; preds = %2
  %11 = landingpad { ptr, i32 }
          catch ptr null
  %12 = extractvalue { ptr, i32 } %11, 0
  call void @__clang_call_terminate(ptr %12) #15
  unreachable
}

; Function Attrs: mustprogress nounwind uwtable
define hidden noundef zeroext i1 @_ZNK2cv3ccm2IOltERKS1_(ptr noundef nonnull align 8 dereferenceable(72) %0, ptr noundef nonnull align 8 dereferenceable(72) %1) #1 align 2 {
  %3 = alloca ptr, align 8
  %4 = alloca ptr, align 8
  store ptr %0, ptr %3, align 8, !tbaa !3
  store ptr %1, ptr %4, align 8, !tbaa !3
  %5 = load ptr, ptr %3, align 8
  %6 = getelementptr inbounds nuw %"class.cv::ccm::IO", ptr %5, i32 0, i32 1
  %7 = load ptr, ptr %4, align 8, !tbaa !3
  %8 = getelementptr inbounds nuw %"class.cv::ccm::IO", ptr %7, i32 0, i32 1
  %9 = call noundef zeroext i1 @_ZStltIcSt11char_traitsIcESaIcEEbRKNSt7__cxx1112basic_stringIT_T0_T1_EESA_(ptr noundef nonnull align 8 dereferenceable(32) %6, ptr noundef nonnull align 8 dereferenceable(32) %8) #14
  br i1 %9, label %22, label %10

10:                                               ; preds = %2
  %11 = getelementptr inbounds nuw %"class.cv::ccm::IO", ptr %5, i32 0, i32 1
  %12 = load ptr, ptr %4, align 8, !tbaa !3
  %13 = getelementptr inbounds nuw %"class.cv::ccm::IO", ptr %12, i32 0, i32 1
  %14 = call noundef zeroext i1 @_ZSteqIcEN9__gnu_cxx11__enable_ifIXsr9__is_charIT_EE7__valueEbE6__typeERKNSt7__cxx1112basic_stringIS2_St11char_traitsIS2_ESaIS2_EEESC_(ptr noundef nonnull align 8 dereferenceable(32) %11, ptr noundef nonnull align 8 dereferenceable(32) %13) #14
  br i1 %14, label %15, label %20

15:                                               ; preds = %10
  %16 = getelementptr inbounds nuw %"class.cv::ccm::IO", ptr %5, i32 0, i32 2
  %17 = load ptr, ptr %4, align 8, !tbaa !3
  %18 = getelementptr inbounds nuw %"class.cv::ccm::IO", ptr %17, i32 0, i32 2
  %19 = call noundef zeroext i1 @_ZStltIcSt11char_traitsIcESaIcEEbRKNSt7__cxx1112basic_stringIT_T0_T1_EESA_(ptr noundef nonnull align 8 dereferenceable(32) %16, ptr noundef nonnull align 8 dereferenceable(32) %18) #14
  br label %20

20:                                               ; preds = %15, %10
  %21 = phi i1 [ false, %10 ], [ %19, %15 ]
  br label %22

22:                                               ; preds = %20, %2
  %23 = phi i1 [ true, %2 ], [ %21, %20 ]
  ret i1 %23
}